; Function Attrs: null_pointer_is_valid sspstrong uwtable
define internal i32 @dissect_inap_T_code_local(i1 noundef zeroext %0, ptr noundef %1, i32 noundef %2, ptr noundef %3, ptr noundef %4, i32 noundef %5) #0 {
  %7 = tail call i32 @dissect_ber_integer(i1 noundef zeroext %0, ptr noundef %3, ptr noundef %4, ptr noundef %1, i32 noundef %2, i32 noundef %5, ptr noundef nonnull @opcode)
  %.b12 = load i1, ptr @is_ExtensionField, align 1
  br i1 %.b12, label %29, label %8

8:                                                ; preds = %6
  %9 = load i32, ptr @inap_opcode_type, align 4
  %10 = icmp eq i32 %9, 3
  br i1 %10, label %11, label %18

11:                                               ; preds = %8
  %12 = load i32, ptr @opcode, align 4
  store i32 %12, ptr @errorCode, align 4
  %13 = getelementptr inbounds nuw i8, ptr %3, i64 16
  %14 = load ptr, ptr %13, align 8
  %15 = getelementptr inbounds nuw i8, ptr %14, i64 8
  %16 = load ptr, ptr %15, align 8
  %17 = tail call ptr @val_to_str(i32 noundef %12, ptr noundef nonnull @inap_err_code_string_vals, ptr noundef nonnull @.str.1441)
  tail call void @col_append_str(ptr noundef %16, i32 noundef 25, ptr noundef %17)
  br label %.sink.split

18:                                               ; preds = %8
  %19 = getelementptr inbounds nuw i8, ptr %3, i64 16
  %20 = load ptr, ptr %19, align 8
  %21 = getelementptr inbounds nuw i8, ptr %20, i64 8
  %22 = load ptr, ptr %21, align 8
  %23 = load i32, ptr @opcode, align 4
  %24 = tail call ptr @val_to_str(i32 noundef %23, ptr noundef nonnull @inap_opr_code_strings, ptr noundef nonnull @.str.1443)
  tail call void @col_append_str(ptr noundef %22, i32 noundef 25, ptr noundef %24)
  br label %.sink.split

.sink.split:                                      ; preds = %18, %11
  %.sink16.in = phi ptr [ %19, %18 ], [ %13, %11 ]
  %.sink16 = load ptr, ptr %.sink16.in, align 8
  %25 = getelementptr inbounds nuw i8, ptr %.sink16, i64 8
  %26 = load ptr, ptr %25, align 8
  tail call void @col_append_str(ptr noundef %26, i32 noundef 25, ptr noundef nonnull @.str.1442)
  %.sink = load ptr, ptr %.sink16.in, align 8
  %27 = getelementptr inbounds nuw i8, ptr %.sink, i64 8
  %28 = load ptr, ptr %27, align 8
  tail call void @col_set_fence(ptr noundef %28, i32 noundef 25)
  br label %29

29:                                               ; preds = %.sink.split, %6
  ret i32 %7
}